libaudgui.so.5 libaudgui5 #MINVER#
 _Z11audgui_initv@Base 3.10-1~webupd8~bionic0
 _Z14audgui_cleanupv@Base 3.10-1~webupd8~bionic0
 _Z14audgui_get_dpiv@Base 3.10-1~webupd8~bionic0
 _Z17audgui_button_newPKcS0_PFvPvES1_@Base 3.10-1~webupd8~bionic0
 _Z17audgui_dialog_new14GtkMessageTypePKcS1_P10_GtkWidgetS3_@Base 3.10-1~webupd8~bionic0
 _Z19audgui_infowin_hidev@Base 3.10-1~webupd8~bionic0
 _Z19audgui_infowin_show8Playlisti@Base 3.10-1~webupd8~bionic0
 _Z19audgui_jump_to_timev@Base 3.10-1~webupd8~bionic0
 _Z19audgui_urilist_openPKc@Base 3.10-1~webupd8~bionic0
 _Z20audgui_jump_to_trackv@Base 3.10-1~webupd8~bionic0
 _Z20audgui_list_get_userP10_GtkWidget@Base 3.10-1~webupd8~bionic0
 _Z20audgui_list_new_realPK19AudguiListCallbacksiPvi@Base 3.10-1~webupd8~bionic0
 _Z20audgui_to_native_dpii@Base 3.10-1~webupd8~bionic0
 _Z21audgui_file_entry_new20GtkFileChooserActionPKc@Base 3.10-1~webupd8~bionic0
 _Z21audgui_infopopup_hidev@Base 3.10-1~webupd8~bionic0
 _Z21audgui_infopopup_show8Playlisti@Base 3.10-1~webupd8~bionic0
 _Z21audgui_list_get_focusP10_GtkWidget@Base 3.10-1~webupd8~bionic0
 _Z21audgui_list_row_countP10_GtkWidget@Base 3.10-1~webupd8~bionic0
 _Z21audgui_list_set_focusP10_GtkWidgeti@Base 3.10-1~webupd8~bionic0
 _Z21audgui_pixbuf_requestPKcPb@Base 3.10-1~webupd8~bionic0
 _Z21audgui_simple_messagePP10_GtkWidget14GtkMessageTypePKcS4_@Base 3.10-1~webupd8~bionic0
 _Z21audgui_urilist_insert8PlaylistiPKc@Base 3.10-1~webupd8~bionic0
 _Z22audgui_export_playlistv@Base 3.10-1~webupd8~bionic0
 _Z22audgui_get_digit_widthP10_GtkWidget@Base 3.10-1~webupd8~bionic0
 _Z22audgui_get_plugin_menu9AudMenuID@Base 3.10-1~webupd8~bionic0
 _Z22audgui_import_playlistv@Base 3.10-1~webupd8~bionic0
 _Z22audgui_list_add_columnP10_GtkWidgetPKcimib@Base 3.10-1~webupd8~bionic0
 _Z22audgui_pixbuf_fallbackv@Base 3.10-1~webupd8~bionic0
 _Z22audgui_plugin_menu_add9AudMenuIDPFvvEPKcS3_@Base 3.10-1~webupd8~bionic0
 _Z22audgui_run_filebrowserb@Base 3.10-1~webupd8~bionic0
 _Z22audgui_to_portable_dpii@Base 3.10-1~webupd8~bionic0
 _Z23audgui_get_mouse_coordsP10_GdkScreenPiS1_@Base 3.10-1~webupd8~bionic0
 _Z23audgui_get_mouse_coordsP10_GtkWidgetPiS1_@Base 3.10-1~webupd8~bionic0
 _Z23audgui_hide_filebrowserv@Base 3.10-1~webupd8~bionic0
 _Z23audgui_list_delete_rowsP10_GtkWidgetii@Base 3.10-1~webupd8~bionic0
 _Z23audgui_list_insert_rowsP10_GtkWidgetii@Base 3.10-1~webupd8~bionic0
 _Z23audgui_list_update_rowsP10_GtkWidgetii@Base 3.10-1~webupd8~bionic0
 _Z23audgui_pixbuf_from_dataPKvl@Base 3.10-1~webupd8~bionic0
 _Z23audgui_scaled_image_newP10_GdkPixbuf@Base 3.10-1~webupd8~bionic0
 _Z23audgui_scaled_image_setP10_GtkWidgetP10_GdkPixbuf@Base 3.10-1~webupd8~bionic0
 _Z24audgui_destroy_on_escapeP10_GtkWidget@Base 3.10-1~webupd8~bionic0
 _Z24audgui_dialog_add_widgetP10_GtkWidgetS0_@Base 3.10-1~webupd8~bionic0
 _Z24audgui_hide_about_windowv@Base 3.10-1~webupd8~bionic0
 _Z24audgui_hide_prefs_windowv@Base 3.10-1~webupd8~bionic0
 _Z24audgui_import_eq_presetsRK5IndexI15EqualizerPresetE@Base 3.10-1~webupd8~bionic0
 _Z24audgui_list_row_at_pointP10_GtkWidgetii@Base 3.10-1~webupd8~bionic0
 _Z24audgui_show_about_windowv@Base 3.10-1~webupd8~bionic0
 _Z24audgui_show_plugin_aboutP12PluginHandle@Base 3.10-1~webupd8~bionic0
 _Z24audgui_show_plugin_prefsP12PluginHandle@Base 3.10-1~webupd8~bionic0
 _Z24audgui_show_prefs_windowv@Base 3.10-1~webupd8~bionic0
 _Z25audgui_file_entry_get_uriP10_GtkWidget@Base 3.10-1~webupd8~bionic0
 _Z25audgui_file_entry_set_uriP10_GtkWidgetPKc@Base 3.10-1~webupd8~bionic0
 _Z25audgui_jump_to_track_hidev@Base 3.10-1~webupd8~bionic0
 _Z25audgui_list_get_highlightP10_GtkWidget@Base 3.10-1~webupd8~bionic0
 _Z25audgui_list_set_highlightP10_GtkWidgeti@Base 3.10-1~webupd8~bionic0
 _Z25audgui_plugin_menu_remove9AudMenuIDPFvvE@Base 3.10-1~webupd8~bionic0
 _Z25audgui_queue_manager_showv@Base 3.10-1~webupd8~bionic0
 _Z26audgui_pixbuf_scale_withinR12AudguiPixbufi@Base 3.10-1~webupd8~bionic0
 _Z26audgui_show_add_url_windowb@Base 3.10-1~webupd8~bionic0
 _Z27audgui_get_monitor_geometryP10_GdkScreeniiP13_GdkRectangle@Base 3.10-1~webupd8~bionic0
 _Z27audgui_infowin_show_currentv@Base 3.10-1~webupd8~bionic0
 _Z27audgui_show_playlist_rename8Playlist@Base 3.10-1~webupd8~bionic0
 _Z28audgui_hide_equalizer_windowv@Base 3.10-1~webupd8~bionic0
 _Z28audgui_list_update_selectionP10_GtkWidgetii@Base 3.10-1~webupd8~bionic0
 _Z28audgui_menu_init_with_domainP10_GtkWidget8ArrayRefI14AudguiMenuItemEP14_GtkAccelGroupPKc@Base 3.10-1~webupd8~bionic0
 _Z28audgui_show_eq_preset_windowv@Base 3.10-1~webupd8~bionic0
 _Z28audgui_show_equalizer_windowv@Base 3.10-1~webupd8~bionic0
 _Z29audgui_infopopup_show_currentv@Base 3.10-1~webupd8~bionic0
 _Z29audgui_pixbuf_request_currentPb@Base 3.10-1~webupd8~bionic0
 _Z30audgui_confirm_playlist_delete8Playlist@Base 3.10-1~webupd8~bionic0
 _Z32audgui_list_row_at_point_roundedP10_GtkWidgetii@Base 3.10-1~webupd8~bionic0
 _Z32audgui_menu_item_new_with_domainPK14AudguiMenuItemP14_GtkAccelGroupPKc@Base 3.10-1~webupd8~bionic0
 _Z33audgui_show_prefs_for_plugin_type10PluginType@Base 3.10-1~webupd8~bionic0
 _Z35audgui_urilist_create_from_selected8Playlist@Base 3.10-1~webupd8~bionic0
